; Function Attrs: mustprogress nofree norecurse nosync nounwind willreturn memory(read, inaccessiblemem: none) uwtable
define hidden noundef i32 @_ZN3ue211countStatesERKSt13unordered_mapINS_12graph_detail17vertex_descriptorINS_9ue2_graphINS_8NGHolderENS_19NFAGraphVertexPropsENS_17NFAGraphEdgePropsEEEEEjSt4hashIS8_ESt8equal_toIS8_ESaISt4pairIKS8_jEEE(ptr noundef nonnull readonly align 8 captures(none) dereferenceable(56) %0) local_unnamed_addr #2 {
  %2 = getelementptr inbounds nuw i8, ptr %0, i64 24
  %3 = load i64, ptr %2, align 8
  %4 = icmp eq i64 %3, 0
  br i1 %4, label %._crit_edge, label %5

5:                                                ; preds = %1
  %6 = getelementptr inbounds nuw i8, ptr %0, i64 16
  %.sroa.07.015 = load ptr, ptr %6, align 8
  %.not1416 = icmp eq ptr %.sroa.07.015, null
  br i1 %.not1416, label %._crit_edge, label %.lr.ph

._crit_edge.loopexit:                             ; preds = %.lr.ph
  %7 = add i32 %.1, 1
  br label %._crit_edge

.lr.ph:                                           ; preds = %5, %.lr.ph
  %.sroa.07.018 = phi ptr [ %.sroa.07.0, %.lr.ph ], [ %.sroa.07.015, %5 ]
  %.01317 = phi i32 [ %.1, %.lr.ph ], [ 0, %5 ]
  %8 = getelementptr inbounds nuw i8, ptr %.sroa.07.018, i64 24
  %9 = load i32, ptr %8, align 8
  %.not = icmp eq i32 %9, -1
  %.sroa.speculated = tail call i32 @llvm.umax.i32(i32 %9, i32 %.01317)
  %.1 = select i1 %.not, i32 %.01317, i32 %.sroa.speculated
  %.sroa.07.0 = load ptr, ptr %.sroa.07.018, align 8
  %.not14 = icmp eq ptr %.sroa.07.0, null
  br i1 %.not14, label %._crit_edge.loopexit, label %.lr.ph

._crit_edge:                                      ; preds = %5, %._crit_edge.loopexit, %1
  %.0 = phi i32 [ 0, %1 ], [ 1, %5 ], [ %7, %._crit_edge.loopexit ]
  ret i32 %.0
}